target datalayout = "e-m:e-p270:32:32-p271:32:32-p272:64:64-i64:64-i128:128-f80:128-n8:16:32:64-S128"
target triple = "x86_64-pc-linux-gnu"

%struct.WebPPicture = type { i32, i32, i32, i32, ptr, ptr, ptr, i32, i32, ptr, i32, [2 x i32], ptr, i32, [3 x i32], ptr, ptr, i32, ptr, ptr, i32, ptr, ptr, [3 x i32], ptr, ptr, [8 x i32], ptr, ptr, [2 x ptr] }

@WebPHasAlpha8b = external global ptr, align 8
@WebPHasAlpha32b = external global ptr, align 8

; Function Attrs: nounwind uwtable
define internal i32 @CheckNonOpaque(ptr noundef %0, i32 noundef %1, i32 noundef %2, i32 noundef %3, i32 noundef %4) #0 {
  %6 = alloca i32, align 4
  %7 = alloca ptr, align 8
  %8 = alloca i32, align 4
  %9 = alloca i32, align 4
  %10 = alloca i32, align 4
  %11 = alloca i32, align 4
  store ptr %0, ptr %7, align 8, !tbaa !20
  store i32 %1, ptr %8, align 4, !tbaa !21
  store i32 %2, ptr %9, align 4, !tbaa !21
  store i32 %3, ptr %10, align 4, !tbaa !21
  store i32 %4, ptr %11, align 4, !tbaa !21
  %12 = load ptr, ptr %7, align 8, !tbaa !20
  %13 = icmp eq ptr %12, null
  br i1 %13, label %14, label %15

14:                                               ; preds = %5
  store i32 0, ptr %6, align 4
  br label %57

15:                                               ; preds = %5
  call void @WebPInitAlphaProcessing()
  %16 = load i32, ptr %10, align 4, !tbaa !21
  %17 = icmp eq i32 %16, 1
  br i1 %17, label %18, label %37

18:                                               ; preds = %15
  br label %19

19:                                               ; preds = %31, %18
  %20 = load i32, ptr %9, align 4, !tbaa !21
  %21 = add nsw i32 %20, -1
  store i32 %21, ptr %9, align 4, !tbaa !21
  %22 = icmp sgt i32 %20, 0
  br i1 %22, label %23, label %36

23:                                               ; preds = %19
  %24 = load ptr, ptr @WebPHasAlpha8b, align 8, !tbaa !22
  %25 = load ptr, ptr %7, align 8, !tbaa !20
  %26 = load i32, ptr %8, align 4, !tbaa !21
  %27 = call i32 %24(ptr noundef %25, i32 noundef %26)
  %28 = icmp ne i32 %27, 0
  br i1 %28, label %29, label %30

29:                                               ; preds = %23
  store i32 1, ptr %6, align 4
  br label %57

30:                                               ; preds = %23
  br label %31

31:                                               ; preds = %30
  %32 = load i32, ptr %11, align 4, !tbaa !21
  %33 = load ptr, ptr %7, align 8, !tbaa !20
  %34 = sext i32 %32 to i64
  %35 = getelementptr inbounds i8, ptr %33, i64 %34
  store ptr %35, ptr %7, align 8, !tbaa !20
  br label %19, !llvm.loop !23

36:                                               ; preds = %19
  br label %56

37:                                               ; preds = %15
  br label %38

38:                                               ; preds = %50, %37
  %39 = load i32, ptr %9, align 4, !tbaa !21
  %40 = add nsw i32 %39, -1
  store i32 %40, ptr %9, align 4, !tbaa !21
  %41 = icmp sgt i32 %39, 0
  br i1 %41, label %42, label %55

42:                                               ; preds = %38
  %43 = load ptr, ptr @WebPHasAlpha32b, align 8, !tbaa !22
  %44 = load ptr, ptr %7, align 8, !tbaa !20
  %45 = load i32, ptr %8, align 4, !tbaa !21
  %46 = call i32 %43(ptr noundef %44, i32 noundef %45)
  %47 = icmp ne i32 %46, 0
  br i1 %47, label %48, label %49

48:                                               ; preds = %42
  store i32 1, ptr %6, align 4
  br label %57

49:                                               ; preds = %42
  br label %50

50:                                               ; preds = %49
  %51 = load i32, ptr %11, align 4, !tbaa !21
  %52 = load ptr, ptr %7, align 8, !tbaa !20
  %53 = sext i32 %51 to i64
  %54 = getelementptr inbounds i8, ptr %52, i64 %53
  store ptr %54, ptr %7, align 8, !tbaa !20
  br label %38, !llvm.loop !25

55:                                               ; preds = %38
  br label %56

56:                                               ; preds = %55, %36
  store i32 0, ptr %6, align 4
  br label %57

57:                                               ; preds = %56, %48, %29, %14
  %58 = load i32, ptr %6, align 4
  ret i32 %58
}

; Function Attrs: nounwind uwtable
define i32 @WebPPictureHasTransparency(ptr noundef %0) #0 {
  %2 = alloca i32, align 4
  %3 = alloca ptr, align 8
  store ptr %0, ptr %3, align 8, !tbaa !3
  %4 = load ptr, ptr %3, align 8, !tbaa !3
  %5 = icmp eq ptr %4, null
  br i1 %5, label %6, label %7

6:                                                ; preds = %1
  store i32 0, ptr %2, align 4
  br label %50

7:                                                ; preds = %1
  %8 = load ptr, ptr %3, align 8, !tbaa !3
  %9 = getelementptr inbounds nuw %struct.WebPPicture, ptr %8, i32 0, i32 0
  %10 = load i32, ptr %9, align 8, !tbaa !8
  %11 = icmp ne i32 %10, 0
  br i1 %11, label %12, label %36

12:                                               ; preds = %7
  %13 = load ptr, ptr %3, align 8, !tbaa !3
  %14 = getelementptr inbounds nuw %struct.WebPPicture, ptr %13, i32 0, i32 12
  %15 = load ptr, ptr %14, align 8, !tbaa !14
  %16 = icmp ne ptr %15, null
  br i1 %16, label %17, label %35

17:                                               ; preds = %12
  %18 = load ptr, ptr %3, align 8, !tbaa !3
  %19 = getelementptr inbounds nuw %struct.WebPPicture, ptr %18, i32 0, i32 12
  %20 = load ptr, ptr %19, align 8, !tbaa !14
  %21 = getelementptr inbounds i8, ptr %20, i64 3
  %22 = load ptr, ptr %3, align 8, !tbaa !3
  %23 = getelementptr inbounds nuw %struct.WebPPicture, ptr %22, i32 0, i32 2
  %24 = load i32, ptr %23, align 8, !tbaa !15
  %25 = load ptr, ptr %3, align 8, !tbaa !3
  %26 = getelementptr inbounds nuw %struct.WebPPicture, ptr %25, i32 0, i32 3
  %27 = load i32, ptr %26, align 4, !tbaa !16
  %28 = load ptr, ptr %3, align 8, !tbaa !3
  %29 = getelementptr inbounds nuw %struct.WebPPicture, ptr %28, i32 0, i32 13
  %30 = load i32, ptr %29, align 8, !tbaa !17
  %31 = sext i32 %30 to i64
  %32 = mul i64 %31, 4
  %33 = trunc i64 %32 to i32
  %34 = call i32 @CheckNonOpaque(ptr noundef %21, i32 noundef %24, i32 noundef %27, i32 noundef 4, i32 noundef %33)
  store i32 %34, ptr %2, align 4
  br label %50

35:                                               ; preds = %12
  store i32 0, ptr %2, align 4
  br label %50

36:                                               ; preds = %7
  %37 = load ptr, ptr %3, align 8, !tbaa !3
  %38 = getelementptr inbounds nuw %struct.WebPPicture, ptr %37, i32 0, i32 9
  %39 = load ptr, ptr %38, align 8, !tbaa !18
  %40 = load ptr, ptr %3, align 8, !tbaa !3
  %41 = getelementptr inbounds nuw %struct.WebPPicture, ptr %40, i32 0, i32 2
  %42 = load i32, ptr %41, align 8, !tbaa !15
  %43 = load ptr, ptr %3, align 8, !tbaa !3
  %44 = getelementptr inbounds nuw %struct.WebPPicture, ptr %43, i32 0, i32 3
  %45 = load i32, ptr %44, align 4, !tbaa !16
  %46 = load ptr, ptr %3, align 8, !tbaa !3
  %47 = getelementptr inbounds nuw %struct.WebPPicture, ptr %46, i32 0, i32 10
  %48 = load i32, ptr %47, align 8, !tbaa !19
  %49 = call i32 @CheckNonOpaque(ptr noundef %39, i32 noundef %42, i32 noundef %45, i32 noundef 1, i32 noundef %48)
  store i32 %49, ptr %2, align 4
  br label %50

50:                                               ; preds = %36, %35, %17, %6
  %51 = load i32, ptr %2, align 4
  ret i32 %51
}