; Function Attrs: nounwind uwtable
define range(i32 0, 2) i32 @WebPPictureHasTransparency(ptr noundef readonly captures(address_is_null) %0) local_unnamed_addr #0 {
  %2 = icmp eq ptr %0, null
  br i1 %2, label %CheckNonOpaque.exit, label %3

3:                                                ; preds = %1
  %4 = load i32, ptr %0, align 8, !tbaa !3
  %.not = icmp eq i32 %4, 0
  br i1 %.not, label %26, label %5

5:                                                ; preds = %3
  %6 = getelementptr inbounds nuw i8, ptr %0, i64 72
  %7 = load ptr, ptr %6, align 8, !tbaa !12
  %.not13 = icmp eq ptr %7, null
  br i1 %.not13, label %CheckNonOpaque.exit, label %8

8:                                                ; preds = %5
  %9 = getelementptr inbounds nuw i8, ptr %0, i64 8
  %10 = load i32, ptr %9, align 8, !tbaa !13
  %11 = getelementptr inbounds nuw i8, ptr %0, i64 12
  %12 = load i32, ptr %11, align 4, !tbaa !14
  %13 = getelementptr inbounds nuw i8, ptr %0, i64 80
  %14 = load i32, ptr %13, align 8, !tbaa !15
  tail call void @WebPInitAlphaProcessing() #9
  %15 = icmp sgt i32 %12, 0
  br i1 %15, label %.lr.ph.i, label %CheckNonOpaque.exit

.lr.ph.i:                                         ; preds = %8
  %16 = shl i32 %14, 2
  %17 = getelementptr inbounds nuw i8, ptr %7, i64 3
  %18 = sext i32 %16 to i64
  br label %19

19:                                               ; preds = %22, %.lr.ph.i
  %.in.i = phi i32 [ %12, %.lr.ph.i ], [ %23, %22 ]
  %.120.i = phi ptr [ %17, %.lr.ph.i ], [ %24, %22 ]
  %20 = load ptr, ptr @WebPHasAlpha32b, align 8, !tbaa !16
  %21 = tail call i32 %20(ptr noundef %.120.i, i32 noundef %10) #9
  %.not.i = icmp eq i32 %21, 0
  br i1 %.not.i, label %22, label %CheckNonOpaque.exit

22:                                               ; preds = %19
  %23 = add nsw i32 %.in.i, -1
  %24 = getelementptr inbounds i8, ptr %.120.i, i64 %18
  %25 = icmp sgt i32 %.in.i, 1
  br i1 %25, label %19, label %CheckNonOpaque.exit, !llvm.loop !17

26:                                               ; preds = %3
  %27 = getelementptr inbounds nuw i8, ptr %0, i64 48
  %28 = load ptr, ptr %27, align 8, !tbaa !19
  %29 = getelementptr inbounds nuw i8, ptr %0, i64 8
  %30 = load i32, ptr %29, align 8, !tbaa !13
  %31 = getelementptr inbounds nuw i8, ptr %0, i64 12
  %32 = load i32, ptr %31, align 4, !tbaa !14
  %33 = getelementptr inbounds nuw i8, ptr %0, i64 56
  %34 = load i32, ptr %33, align 8, !tbaa !20
  %35 = icmp eq ptr %28, null
  br i1 %35, label %CheckNonOpaque.exit, label %36

36:                                               ; preds = %26
  tail call void @WebPInitAlphaProcessing() #9
  %37 = icmp sgt i32 %32, 0
  br i1 %37, label %.lr.ph24.i, label %CheckNonOpaque.exit

.lr.ph24.i:                                       ; preds = %36
  %38 = sext i32 %34 to i64
  br label %39

39:                                               ; preds = %42, %.lr.ph24.i
  %.in28.i = phi i32 [ %32, %.lr.ph24.i ], [ %43, %42 ]
  %.01223.i = phi ptr [ %28, %.lr.ph24.i ], [ %44, %42 ]
  %40 = load ptr, ptr @WebPHasAlpha8b, align 8, !tbaa !16
  %41 = tail call i32 %40(ptr noundef %.01223.i, i32 noundef %30) #9
  %.not16.i = icmp eq i32 %41, 0
  br i1 %.not16.i, label %42, label %CheckNonOpaque.exit

42:                                               ; preds = %39
  %43 = add nsw i32 %.in28.i, -1
  %44 = getelementptr inbounds i8, ptr %.01223.i, i64 %38
  %45 = icmp sgt i32 %.in28.i, 1
  br i1 %45, label %39, label %CheckNonOpaque.exit, !llvm.loop !21

CheckNonOpaque.exit:                              ; preds = %22, %19, %42, %39, %36, %26, %8, %5, %1
  %.0 = phi i32 [ 0, %1 ], [ 0, %5 ], [ 0, %8 ], [ 0, %26 ], [ 0, %36 ], [ 0, %42 ], [ 1, %39 ], [ 0, %22 ], [ 1, %19 ]
  ret i32 %.0
}